target datalayout = "e-m:e-p270:32:32-p271:32:32-p272:64:64-i64:64-i128:128-f80:128-n8:16:32:64-S128"
target triple = "x86_64-unknown-linux-gnu"

; Function Attrs: mustprogress uwtable
define hidden noundef ptr @_ZN2qe18mk_datatype_pluginERNS_16i_solver_contextE(ptr noundef nonnull align 8 dereferenceable(48) %ctx) #4 {
entry:
  %ctx.addr = alloca ptr, align 8
  store ptr %ctx, ptr %ctx.addr, align 8
  %call = call noalias noundef ptr @_ZN6memory8allocateEm(i64 noundef 520)
  %0 = load ptr, ptr %ctx.addr, align 8
  %1 = load ptr, ptr %ctx.addr, align 8
  %vtable = load ptr, ptr %1, align 8
  %vfn = getelementptr inbounds ptr, ptr %vtable, i64 2
  %2 = load ptr, ptr %vfn, align 8
  %call1 = call noundef nonnull align 8 dereferenceable(976) ptr %2(ptr noundef nonnull align 8 dereferenceable(48) %1)
  call void @_ZN2qe15datatype_pluginC2ERNS_16i_solver_contextER11ast_manager(ptr noundef nonnull align 8 dereferenceable(520) %call, ptr noundef nonnull align 8 dereferenceable(48) %0, ptr noundef nonnull align 8 dereferenceable(976) %call1)
  ret ptr %call
}