; Function Attrs: mustprogress uwtable
define hidden noundef ptr @_ZN2qe18mk_datatype_pluginERNS_16i_solver_contextE(ptr noundef nonnull align 8 dereferenceable(48) %ctx) local_unnamed_addr #3 {
entry:
  %call = tail call noalias noundef ptr @_ZN6memory8allocateEm(i64 noundef 520)
  %vtable = load ptr, ptr %ctx, align 8
  %vfn = getelementptr inbounds i8, ptr %vtable, i64 16
  %0 = load ptr, ptr %vfn, align 8
  %call1 = tail call noundef nonnull align 8 dereferenceable(976) ptr %0(ptr noundef nonnull align 8 dereferenceable(48) %ctx)
  tail call void @_ZN2qe15datatype_pluginC2ERNS_16i_solver_contextER11ast_manager(ptr noundef nonnull align 8 dereferenceable(520) %call, ptr noundef nonnull align 8 dereferenceable(48) %ctx, ptr noundef nonnull align 8 dereferenceable(976) %call1)
  ret ptr %call
}